target datalayout = "e-m:e-p270:32:32-p271:32:32-p272:64:64-i64:64-i128:128-f80:128-n8:16:32:64-S128"
target triple = "x86_64-pc-linux-gnu"

%struct.uv_loop_s = type { ptr, i32, [2 x ptr], %union.anon, ptr, i32, i64, i32, [2 x ptr], [2 x ptr], ptr, i32, i32, [2 x ptr], %union.pthread_mutex_t, %struct.uv_async_s, %union.pthread_rwlock_t, ptr, [2 x ptr], [2 x ptr], [2 x ptr], [2 x ptr], [2 x ptr], ptr, %struct.uv__io_s, i32, %struct.anon, i64, i64, [2 x i32], %struct.uv__io_s, %struct.uv_signal_s, i32, %struct.uv__io_s, ptr, i32 }
%union.anon = type { ptr }
%union.pthread_mutex_t = type { %struct.__pthread_mutex_s }
%struct.__pthread_mutex_s = type { i32, i32, i32, i32, i32, i16, i16, %struct.__pthread_internal_list }
%struct.__pthread_internal_list = type { ptr, ptr }
%struct.uv_async_s = type { ptr, ptr, i32, ptr, [2 x ptr], %union.anon.0, ptr, i32, ptr, [2 x ptr], i32 }
%union.anon.0 = type { [4 x ptr] }
%union.pthread_rwlock_t = type { %struct.__pthread_rwlock_arch_t }
%struct.__pthread_rwlock_arch_t = type { i32, i32, i32, i32, i32, i32, i32, i32, i8, [7 x i8], i64, i32 }
%struct.anon = type { ptr, i32 }
%struct.uv_signal_s = type { ptr, ptr, i32, ptr, [2 x ptr], %union.anon.1, ptr, i32, ptr, i32, %struct.anon.2, i32, i32 }
%union.anon.1 = type { [4 x ptr] }
%struct.anon.2 = type { ptr, ptr, ptr, i32 }
%struct.uv__io_s = type { ptr, [2 x ptr], [2 x ptr], i32, i32, i32 }
%struct.epoll_event = type <{ i32, %union.epoll_data }>
%union.epoll_data = type { ptr }

; Function Attrs: nounwind uwtable
define dso_local void @uv__platform_invalidate_fd(ptr noundef %0, i32 noundef %1) #0 {
  %3 = alloca ptr, align 8
  %4 = alloca i32, align 4
  %5 = alloca ptr, align 8
  %6 = alloca %struct.epoll_event, align 1
  %7 = alloca i64, align 8
  %8 = alloca i64, align 8
  store ptr %0, ptr %3, align 8, !tbaa !4
  store i32 %1, ptr %4, align 4, !tbaa !9
  call void @llvm.lifetime.start.p0(i64 8, ptr %5) #7
  call void @llvm.lifetime.start.p0(i64 12, ptr %6) #7
  call void @llvm.lifetime.start.p0(i64 8, ptr %7) #7
  call void @llvm.lifetime.start.p0(i64 8, ptr %8) #7
  %9 = load ptr, ptr %3, align 8, !tbaa !4
  %10 = getelementptr inbounds nuw %struct.uv_loop_s, ptr %9, i32 0, i32 10
  %11 = load ptr, ptr %10, align 8, !tbaa !22
  %12 = load ptr, ptr %3, align 8, !tbaa !4
  %13 = getelementptr inbounds nuw %struct.uv_loop_s, ptr %12, i32 0, i32 11
  %14 = load i32, ptr %13, align 8, !tbaa !23
  %15 = zext i32 %14 to i64
  %16 = getelementptr inbounds nuw ptr, ptr %11, i64 %15
  %17 = load ptr, ptr %16, align 8, !tbaa !24
  store ptr %17, ptr %5, align 8, !tbaa !26
  %18 = load ptr, ptr %3, align 8, !tbaa !4
  %19 = getelementptr inbounds nuw %struct.uv_loop_s, ptr %18, i32 0, i32 10
  %20 = load ptr, ptr %19, align 8, !tbaa !22
  %21 = load ptr, ptr %3, align 8, !tbaa !4
  %22 = getelementptr inbounds nuw %struct.uv_loop_s, ptr %21, i32 0, i32 11
  %23 = load i32, ptr %22, align 8, !tbaa !23
  %24 = add i32 %23, 1
  %25 = zext i32 %24 to i64
  %26 = getelementptr inbounds nuw ptr, ptr %20, i64 %25
  %27 = load ptr, ptr %26, align 8, !tbaa !24
  %28 = ptrtoint ptr %27 to i64
  store i64 %28, ptr %8, align 8, !tbaa !28
  %29 = load ptr, ptr %5, align 8, !tbaa !26
  %30 = icmp ne ptr %29, null
  br i1 %30, label %31, label %54

31:                                               ; preds = %2
  store i64 0, ptr %7, align 8, !tbaa !28
  br label %32

32:                                               ; preds = %50, %31
  %33 = load i64, ptr %7, align 8, !tbaa !28
  %34 = load i64, ptr %8, align 8, !tbaa !28
  %35 = icmp ult i64 %33, %34
  br i1 %35, label %36, label %53

36:                                               ; preds = %32
  %37 = load ptr, ptr %5, align 8, !tbaa !26
  %38 = load i64, ptr %7, align 8, !tbaa !28
  %39 = getelementptr inbounds nuw %struct.epoll_event, ptr %37, i64 %38
  %40 = getelementptr inbounds nuw %struct.epoll_event, ptr %39, i32 0, i32 1
  %41 = load i32, ptr %40, align 1, !tbaa !29
  %42 = load i32, ptr %4, align 4, !tbaa !9
  %43 = icmp eq i32 %41, %42
  br i1 %43, label %44, label %49

44:                                               ; preds = %36
  %45 = load ptr, ptr %5, align 8, !tbaa !26
  %46 = load i64, ptr %7, align 8, !tbaa !28
  %47 = getelementptr inbounds nuw %struct.epoll_event, ptr %45, i64 %46
  %48 = getelementptr inbounds nuw %struct.epoll_event, ptr %47, i32 0, i32 1
  store i32 -1, ptr %48, align 1, !tbaa !29
  br label %49

49:                                               ; preds = %44, %36
  br label %50

50:                                               ; preds = %49
  %51 = load i64, ptr %7, align 8, !tbaa !28
  %52 = add i64 %51, 1
  store i64 %52, ptr %7, align 8, !tbaa !28
  br label %32, !llvm.loop !30

53:                                               ; preds = %32
  br label %54

54:                                               ; preds = %53, %2
  %55 = load ptr, ptr %3, align 8, !tbaa !4
  %56 = getelementptr inbounds nuw %struct.uv_loop_s, ptr %55, i32 0, i32 7
  %57 = load i32, ptr %56, align 8, !tbaa !11
  %58 = icmp sge i32 %57, 0
  br i1 %58, label %59, label %65

59:                                               ; preds = %54
  call void @llvm.memset.p0.i64(ptr align 1 %6, i8 0, i64 12, i1 false)
  %60 = load ptr, ptr %3, align 8, !tbaa !4
  %61 = getelementptr inbounds nuw %struct.uv_loop_s, ptr %60, i32 0, i32 7
  %62 = load i32, ptr %61, align 8, !tbaa !11
  %63 = load i32, ptr %4, align 4, !tbaa !9
  %64 = call i32 @epoll_ctl(i32 noundef %62, i32 noundef 2, i32 noundef %63, ptr noundef %6) #7
  br label %65

65:                                               ; preds = %59, %54
  call void @llvm.lifetime.end.p0(i64 8, ptr %8) #7
  call void @llvm.lifetime.end.p0(i64 8, ptr %7) #7
  call void @llvm.lifetime.end.p0(i64 12, ptr %6) #7
  call void @llvm.lifetime.end.p0(i64 8, ptr %5) #7
  ret void
}