; Function Attrs: nounwind uwtable
define dso_local void @uv__platform_invalidate_fd(ptr noundef readonly captures(none) %0, i32 noundef %1) local_unnamed_addr #0 {
  %3 = alloca %struct.epoll_event, align 1
  call void @llvm.lifetime.start.p0(i64 12, ptr nonnull %3) #8
  %4 = getelementptr inbounds nuw i8, ptr %0, i64 104
  %5 = load ptr, ptr %4, align 8, !tbaa !21
  %6 = getelementptr inbounds nuw i8, ptr %0, i64 112
  %7 = load i32, ptr %6, align 8, !tbaa !22
  %8 = zext i32 %7 to i64
  %9 = getelementptr inbounds nuw ptr, ptr %5, i64 %8
  %10 = load ptr, ptr %9, align 8, !tbaa !23
  %11 = add i32 %7, 1
  %12 = zext i32 %11 to i64
  %13 = getelementptr inbounds nuw ptr, ptr %5, i64 %12
  %14 = load ptr, ptr %13, align 8, !tbaa !23
  %.not = icmp ne ptr %10, null
  %15 = icmp ne ptr %14, null
  %or.cond = select i1 %.not, i1 %15, i1 false
  br i1 %or.cond, label %.lr.ph.preheader, label %.loopexit

.lr.ph.preheader:                                 ; preds = %2
  %16 = ptrtoint ptr %14 to i64
  %umax = tail call i64 @llvm.umax.i64(i64 %16, i64 1)
  br label %.lr.ph

.lr.ph:                                           ; preds = %.lr.ph.preheader, %21
  %.016 = phi i64 [ %22, %21 ], [ 0, %.lr.ph.preheader ]
  %17 = getelementptr inbounds nuw %struct.epoll_event, ptr %10, i64 %.016, i32 1
  %18 = load i32, ptr %17, align 1, !tbaa !25
  %19 = icmp eq i32 %18, %1
  br i1 %19, label %20, label %21

20:                                               ; preds = %.lr.ph
  store i32 -1, ptr %17, align 1, !tbaa !25
  br label %21

21:                                               ; preds = %.lr.ph, %20
  %22 = add nuw i64 %.016, 1
  %exitcond.not = icmp eq i64 %22, %umax
  br i1 %exitcond.not, label %.loopexit, label %.lr.ph, !llvm.loop !26

.loopexit:                                        ; preds = %21, %2
  %23 = getelementptr inbounds nuw i8, ptr %0, i64 64
  %24 = load i32, ptr %23, align 8, !tbaa !8
  %25 = icmp sgt i32 %24, -1
  br i1 %25, label %26, label %28

26:                                               ; preds = %.loopexit
  call void @llvm.memset.p0.i64(ptr noundef nonnull align 1 dereferenceable(12) %3, i8 0, i64 12, i1 false)
  %27 = call i32 @epoll_ctl(i32 noundef %24, i32 noundef 2, i32 noundef %1, ptr noundef nonnull %3) #8
  br label %28

28:                                               ; preds = %26, %.loopexit
  call void @llvm.lifetime.end.p0(i64 12, ptr nonnull %3) #8
  ret void
}